; Function Attrs: nounwind uwtable
define internal void @_set_circle_attr(ptr noundef %0, ptr noundef %1, ptr nocapture noundef readonly %2) #0 {
  tail call void @_set_attr(ptr noundef %0, ptr noundef %1, ptr noundef %2)
  %4 = load i8, ptr %2, align 8, !tbaa !163
  switch i8 %4, label %17 [
    i8 17, label %5
    i8 18, label %9
    i8 19, label %13
  ]

5:                                                ; preds = %3
  %6 = getelementptr inbounds nuw i8, ptr %2, i64 8
  %7 = load float, ptr %6, align 8, !tbaa !165
  %8 = getelementptr inbounds nuw i8, ptr %0, i64 576
  store float %7, ptr %8, align 8, !tbaa !179
  br label %17

9:                                                ; preds = %3
  %10 = getelementptr inbounds nuw i8, ptr %2, i64 8
  %11 = load float, ptr %10, align 8, !tbaa !165
  %12 = getelementptr inbounds nuw i8, ptr %0, i64 580
  store float %11, ptr %12, align 4, !tbaa !180
  br label %17

13:                                               ; preds = %3
  %14 = getelementptr inbounds nuw i8, ptr %2, i64 8
  %15 = load float, ptr %14, align 8, !tbaa !165
  %16 = getelementptr inbounds nuw i8, ptr %0, i64 584
  store float %15, ptr %16, align 8, !tbaa !181
  br label %17

17:                                               ; preds = %13, %9, %5, %3
  ret void
}